target datalayout = "e-m:e-p270:32:32-p271:32:32-p272:64:64-i64:64-i128:128-f80:128-n8:16:32:64-S128"
target triple = "x86_64-pc-linux-gnu"

; Function Attrs: nounwind uwtable
define internal void @Float32_To_Int24(ptr noundef %0, i32 noundef %1, ptr noundef %2, i32 noundef %3, i32 noundef %4, ptr noundef %5) #0 {
  %7 = alloca ptr, align 8
  %8 = alloca i32, align 4
  %9 = alloca ptr, align 8
  %10 = alloca i32, align 4
  %11 = alloca i32, align 4
  %12 = alloca ptr, align 8
  %13 = alloca ptr, align 8
  %14 = alloca ptr, align 8
  %15 = alloca i32, align 4
  %16 = alloca double, align 8
  store ptr %0, ptr %7, align 8, !tbaa !70
  store i32 %1, ptr %8, align 4, !tbaa !71
  store ptr %2, ptr %9, align 8, !tbaa !70
  store i32 %3, ptr %10, align 4, !tbaa !71
  store i32 %4, ptr %11, align 4, !tbaa !71
  store ptr %5, ptr %12, align 8, !tbaa !73
  call void @llvm.lifetime.start.p0(i64 8, ptr %13) #4
  %17 = load ptr, ptr %9, align 8, !tbaa !70
  store ptr %17, ptr %13, align 8, !tbaa !75
  call void @llvm.lifetime.start.p0(i64 8, ptr %14) #4
  %18 = load ptr, ptr %7, align 8, !tbaa !70
  store ptr %18, ptr %14, align 8, !tbaa !87
  call void @llvm.lifetime.start.p0(i64 4, ptr %15) #4
  br label %19

19:                                               ; preds = %23, %6
  %20 = load i32, ptr %11, align 4, !tbaa !71
  %21 = add i32 %20, -1
  store i32 %21, ptr %11, align 4, !tbaa !71
  %22 = icmp ne i32 %20, 0
  br i1 %22, label %23, label %54

23:                                               ; preds = %19
  call void @llvm.lifetime.start.p0(i64 8, ptr %16) #4
  %24 = load ptr, ptr %13, align 8, !tbaa !75
  %25 = load float, ptr %24, align 4, !tbaa !79
  %26 = fpext float %25 to double
  %27 = fmul double %26, 0x41DFFFFFFFC00000
  store double %27, ptr %16, align 8, !tbaa !81
  %28 = load double, ptr %16, align 8, !tbaa !81
  %29 = fptosi double %28 to i32
  store i32 %29, ptr %15, align 4, !tbaa !71
  %30 = load i32, ptr %15, align 4, !tbaa !71
  %31 = ashr i32 %30, 8
  %32 = trunc i32 %31 to i8
  %33 = load ptr, ptr %14, align 8, !tbaa !87
  %34 = getelementptr inbounds i8, ptr %33, i64 0
  store i8 %32, ptr %34, align 1, !tbaa !89
  %35 = load i32, ptr %15, align 4, !tbaa !71
  %36 = ashr i32 %35, 16
  %37 = trunc i32 %36 to i8
  %38 = load ptr, ptr %14, align 8, !tbaa !87
  %39 = getelementptr inbounds i8, ptr %38, i64 1
  store i8 %37, ptr %39, align 1, !tbaa !89
  %40 = load i32, ptr %15, align 4, !tbaa !71
  %41 = ashr i32 %40, 24
  %42 = trunc i32 %41 to i8
  %43 = load ptr, ptr %14, align 8, !tbaa !87
  %44 = getelementptr inbounds i8, ptr %43, i64 2
  store i8 %42, ptr %44, align 1, !tbaa !89
  %45 = load i32, ptr %10, align 4, !tbaa !71
  %46 = load ptr, ptr %13, align 8, !tbaa !75
  %47 = sext i32 %45 to i64
  %48 = getelementptr inbounds float, ptr %46, i64 %47
  store ptr %48, ptr %13, align 8, !tbaa !75
  %49 = load i32, ptr %8, align 4, !tbaa !71
  %50 = mul nsw i32 %49, 3
  %51 = load ptr, ptr %14, align 8, !tbaa !87
  %52 = sext i32 %50 to i64
  %53 = getelementptr inbounds i8, ptr %51, i64 %52
  store ptr %53, ptr %14, align 8, !tbaa !87
  call void @llvm.lifetime.end.p0(i64 8, ptr %16) #4
  br label %19, !llvm.loop !90

54:                                               ; preds = %19
  call void @llvm.lifetime.end.p0(i64 4, ptr %15) #4
  call void @llvm.lifetime.end.p0(i64 8, ptr %14) #4
  call void @llvm.lifetime.end.p0(i64 8, ptr %13) #4
  ret void
}