; Function Attrs: nofree norecurse nosync nounwind memory(argmem: readwrite) uwtable
define internal void @Float32_To_Int24(ptr noundef writeonly captures(none) %0, i32 noundef %1, ptr noundef readonly captures(none) %2, i32 noundef %3, i32 noundef %4, ptr readnone captures(none) %5) #2 {
  %.not16 = icmp eq i32 %4, 0
  br i1 %.not16, label %._crit_edge, label %.lr.ph

.lr.ph:                                           ; preds = %6
  %7 = sext i32 %3 to i64
  %8 = mul nsw i32 %1, 3
  %9 = sext i32 %8 to i64
  br label %10

10:                                               ; preds = %.lr.ph, %10
  %.019 = phi i32 [ %4, %.lr.ph ], [ %11, %10 ]
  %.01418 = phi ptr [ %2, %.lr.ph ], [ %24, %10 ]
  %.01517 = phi ptr [ %0, %.lr.ph ], [ %25, %10 ]
  %11 = add i32 %.019, -1
  %12 = load float, ptr %.01418, align 4, !tbaa !68
  %13 = fpext float %12 to double
  %14 = fmul double %13, 0x41DFFFFFFFC00000
  %15 = fptosi double %14 to i32
  %16 = lshr i32 %15, 8
  %17 = trunc i32 %16 to i8
  store i8 %17, ptr %.01517, align 1, !tbaa !76
  %18 = lshr i32 %15, 16
  %19 = trunc i32 %18 to i8
  %20 = getelementptr inbounds nuw i8, ptr %.01517, i64 1
  store i8 %19, ptr %20, align 1, !tbaa !76
  %21 = lshr i32 %15, 24
  %22 = trunc nuw i32 %21 to i8
  %23 = getelementptr inbounds nuw i8, ptr %.01517, i64 2
  store i8 %22, ptr %23, align 1, !tbaa !76
  %24 = getelementptr inbounds float, ptr %.01418, i64 %7
  %25 = getelementptr inbounds i8, ptr %.01517, i64 %9
  %.not = icmp eq i32 %11, 0
  br i1 %.not, label %._crit_edge, label %10, !llvm.loop !77

._crit_edge:                                      ; preds = %10, %6
  ret void
}